; Function Attrs: nounwind uwtable
define i32 @gzflush(ptr noundef %0, i32 noundef %1) local_unnamed_addr #0 {
  %3 = icmp eq ptr %0, null
  br i1 %3, label %gz_zero.exit.thread, label %4

4:                                                ; preds = %2
  %5 = load i32, ptr %0, align 8, !tbaa !3
  %.not = icmp eq i32 %5, 31153
  br i1 %.not, label %6, label %gz_zero.exit.thread

6:                                                ; preds = %4
  %7 = getelementptr inbounds nuw i8, ptr %0, i64 108
  %8 = load i32, ptr %7, align 4, !tbaa !13
  %.not16 = icmp ne i32 %8, 0
  %or.cond = icmp ugt i32 %1, 4
  %or.cond18 = or i1 %or.cond, %.not16
  br i1 %or.cond18, label %gz_zero.exit.thread, label %9

9:                                                ; preds = %6
  %10 = getelementptr inbounds nuw i8, ptr %0, i64 104
  %11 = load i32, ptr %10, align 8, !tbaa !15
  %.not17 = icmp eq i32 %11, 0
  br i1 %.not17, label %gz_zero.exit, label %12

12:                                               ; preds = %9
  store i32 0, ptr %10, align 8, !tbaa !15
  %13 = getelementptr inbounds nuw i8, ptr %0, i64 96
  %14 = load i64, ptr %13, align 8, !tbaa !16
  %15 = getelementptr inbounds nuw i8, ptr %0, i64 120
  %16 = getelementptr inbounds nuw i8, ptr %0, i64 128
  %17 = load i32, ptr %16, align 8, !tbaa !17
  %.not.i = icmp eq i32 %17, 0
  br i1 %.not.i, label %21, label %18

18:                                               ; preds = %12
  %19 = tail call fastcc i32 @gz_comp(ptr noundef nonnull %0, i32 noundef 0)
  %20 = icmp eq i32 %19, -1
  br i1 %20, label %gz_zero.exit.thread, label %21

21:                                               ; preds = %18, %12
  %.not2224.i = icmp eq i64 %14, 0
  br i1 %.not2224.i, label %gz_zero.exit, label %.lr.ph.i

.lr.ph.i:                                         ; preds = %21
  %22 = getelementptr inbounds nuw i8, ptr %0, i64 24
  %23 = getelementptr inbounds nuw i8, ptr %0, i64 32
  %24 = getelementptr inbounds nuw i8, ptr %0, i64 16
  br label %27

25:                                               ; preds = %35
  %26 = sub nsw i64 %.02026.i, %.pre-phi.i
  %.not22.i = icmp eq i64 %26, 0
  br i1 %.not22.i, label %gz_zero.exit, label %27, !llvm.loop !18

27:                                               ; preds = %25, %.lr.ph.i
  %.02026.i = phi i64 [ %14, %.lr.ph.i ], [ %26, %25 ]
  %.not2325.i = phi i1 [ false, %.lr.ph.i ], [ true, %25 ]
  %28 = load i32, ptr %22, align 8, !tbaa !14
  %29 = zext i32 %28 to i64
  %30 = tail call i64 @llvm.smin.i64(i64 %.02026.i, i64 %29)
  %31 = trunc i64 %30 to i32
  br i1 %.not2325.i, label %._crit_edge.i, label %32

._crit_edge.i:                                    ; preds = %27
  %.pre.i = and i64 %30, 4294967295
  br label %35

32:                                               ; preds = %27
  %33 = load ptr, ptr %23, align 8, !tbaa !20
  %34 = and i64 %30, 4294967295
  tail call void @llvm.memset.p0.i64(ptr align 1 %33, i8 0, i64 %34, i1 false)
  br label %35

35:                                               ; preds = %32, %._crit_edge.i
  %.pre-phi.i = phi i64 [ %.pre.i, %._crit_edge.i ], [ %34, %32 ]
  store i32 %31, ptr %16, align 8, !tbaa !17
  %36 = load ptr, ptr %23, align 8, !tbaa !20
  store ptr %36, ptr %15, align 8, !tbaa !21
  %37 = load i64, ptr %24, align 8, !tbaa !22
  %38 = add nsw i64 %37, %.pre-phi.i
  store i64 %38, ptr %24, align 8, !tbaa !22
  %39 = tail call fastcc i32 @gz_comp(ptr noundef nonnull %0, i32 noundef 0)
  %40 = icmp eq i32 %39, -1
  br i1 %40, label %gz_zero.exit.thread, label %25

gz_zero.exit:                                     ; preds = %25, %21, %9
  %41 = tail call fastcc i32 @gz_comp(ptr noundef %0, i32 noundef %1)
  %42 = load i32, ptr %7, align 4, !tbaa !13
  br label %gz_zero.exit.thread

gz_zero.exit.thread:                              ; preds = %35, %18, %4, %6, %2, %gz_zero.exit
  %.0 = phi i32 [ %42, %gz_zero.exit ], [ -1, %2 ], [ -2, %6 ], [ -2, %4 ], [ -1, %18 ], [ -1, %35 ]
  ret i32 %.0
}